target datalayout = "e-m:e-p270:32:32-p271:32:32-p272:64:64-i64:64-i128:128-f80:128-n8:16:32:64-S128"
target triple = "x86_64-pc-linux-gnu"

%struct.display_data = type { i64, i32, ptr, i8, i32, ptr, ptr, ptr, ptr, ptr, ptr, ptr, ptr }

@.str.109 = private unnamed_addr constant [16 x i8] c"node got %d %d\0A\00", align 1

; Function Attrs: nounwind uwtable
define internal void @_selected_page(ptr noundef %0, ptr noundef %1) #0 {
  %3 = alloca ptr, align 8
  %4 = alloca ptr, align 8
  store ptr %0, ptr %3, align 8
  store ptr %1, ptr %4, align 8
  %5 = load ptr, ptr %4, align 8
  %6 = getelementptr inbounds nuw %struct.display_data, ptr %5, i32 0, i32 4
  %7 = load i32, ptr %6, align 4
  switch i32 %7, label %22 [
    i32 4, label %8
    i32 7, label %15
  ]

8:                                                ; preds = %2
  %9 = load ptr, ptr %4, align 8
  %10 = getelementptr inbounds nuw %struct.display_data, ptr %9, i32 0, i32 11
  %11 = load ptr, ptr %10, align 8
  %12 = load ptr, ptr %4, align 8
  %13 = getelementptr inbounds nuw %struct.display_data, ptr %12, i32 0, i32 1
  %14 = load i32, ptr %13, align 8
  call void @popup_all_node_name(ptr noundef %11, i32 noundef %14, ptr noundef null)
  br label %29

15:                                               ; preds = %2
  %16 = load ptr, ptr %4, align 8
  %17 = getelementptr inbounds nuw %struct.display_data, ptr %16, i32 0, i32 11
  %18 = load ptr, ptr %17, align 8
  %19 = load ptr, ptr %4, align 8
  %20 = getelementptr inbounds nuw %struct.display_data, ptr %19, i32 0, i32 2
  %21 = load ptr, ptr %20, align 8
  call void @admin_node_name(ptr noundef %18, ptr noundef null, ptr noundef %21)
  br label %29

22:                                               ; preds = %2
  %23 = load ptr, ptr %4, align 8
  %24 = getelementptr inbounds nuw %struct.display_data, ptr %23, i32 0, i32 4
  %25 = load i32, ptr %24, align 4
  %26 = load ptr, ptr %4, align 8
  %27 = getelementptr inbounds nuw %struct.display_data, ptr %26, i32 0, i32 1
  %28 = load i32, ptr %27, align 8
  call void (ptr, ...) @g_print(ptr noundef @.str.109, i32 noundef %25, i32 noundef %28)
  br label %29

29:                                               ; preds = %22, %15, %8
  ret void
}