; Function Attrs: nounwind uwtable
define internal void @_selected_page(ptr readnone captures(none) %0, ptr noundef readonly captures(none) %1) #0 {
  %3 = getelementptr inbounds nuw i8, ptr %1, i64 28
  %4 = load i32, ptr %3, align 4
  switch i32 %4, label %15 [
    i32 4, label %5
    i32 7, label %10
  ]

5:                                                ; preds = %2
  %6 = getelementptr inbounds nuw i8, ptr %1, i64 80
  %7 = load ptr, ptr %6, align 8
  %8 = getelementptr inbounds nuw i8, ptr %1, i64 8
  %9 = load i32, ptr %8, align 8
  tail call void @popup_all_node_name(ptr noundef %7, i32 noundef %9, ptr noundef null)
  br label %18

10:                                               ; preds = %2
  %11 = getelementptr inbounds nuw i8, ptr %1, i64 80
  %12 = load ptr, ptr %11, align 8
  %13 = getelementptr inbounds nuw i8, ptr %1, i64 16
  %14 = load ptr, ptr %13, align 8
  tail call void @admin_node_name(ptr noundef %12, ptr noundef null, ptr noundef %14)
  br label %18

15:                                               ; preds = %2
  %16 = getelementptr inbounds nuw i8, ptr %1, i64 8
  %17 = load i32, ptr %16, align 8
  tail call void (ptr, ...) @g_print(ptr noundef nonnull @.str.109, i32 noundef %4, i32 noundef %17) #11
  br label %18

18:                                               ; preds = %15, %10, %5
  ret void
}